target datalayout = "e-m:e-p270:32:32-p271:32:32-p272:64:64-i64:64-i128:128-f80:128-n8:16:32:64-S128"
target triple = "x86_64-pc-linux-gnu"

%union.pthread_mutex_t = type { %struct.__pthread_mutex_s }
%struct.__pthread_mutex_s = type { i32, i32, i32, i32, i32, i16, i16, %struct.__pthread_internal_list }
%struct.__pthread_internal_list = type { ptr, ptr }
%struct.wolfSSL_RefWithMutex = type { %union.pthread_mutex_t, i32 }
%struct.WOLFSSL_CTX = type <{ ptr, %struct.wolfSSL_RefWithMutex, i32, [4 x i8], %struct.WOLFSSL_BUFFER_INFO, %struct.WOLFSSL_BUFFER_INFO, ptr, ptr, i32, [4 x i8], ptr, i8, i8, [2 x i8], i32, i32, [4 x i8], ptr, ptr, ptr, i8, i16, i8, i8, i8, i16, i16, i16, i16, [2 x i8], i64, ptr, ptr, ptr, ptr, i32, i32, i16, [2 x i8], i32, [10 x i16], i8, [3 x i8], ptr, ptr, i32, [4 x i8], ptr, i8, [7 x i8] }>
%struct.WOLFSSL_BUFFER_INFO = type { ptr, i32 }

; Function Attrs: nounwind uwtable
define i64 @wolfSSL_CTX_set_session_cache_mode(ptr noundef %0, i64 noundef %1) #0 {
  %3 = alloca i64, align 8
  %4 = alloca ptr, align 8
  %5 = alloca i64, align 8
  store ptr %0, ptr %4, align 8, !tbaa !24
  store i64 %1, ptr %5, align 8, !tbaa !22
  br label %6

6:                                                ; preds = %2
  br label %7

7:                                                ; preds = %6
  %8 = load ptr, ptr %4, align 8, !tbaa !24
  %9 = icmp eq ptr %8, null
  br i1 %9, label %10, label %11

10:                                               ; preds = %7
  store i64 0, ptr %3, align 8
  br label %31

11:                                               ; preds = %7
  %12 = load i64, ptr %5, align 8, !tbaa !22
  %13 = icmp eq i64 %12, 0
  br i1 %13, label %14, label %20

14:                                               ; preds = %11
  %15 = load ptr, ptr %4, align 8, !tbaa !24
  %16 = getelementptr inbounds nuw %struct.WOLFSSL_CTX, ptr %15, i32 0, i32 21
  %17 = load i16, ptr %16, align 1
  %18 = and i16 %17, -17
  %19 = or i16 %18, 16
  store i16 %19, ptr %16, align 1
  br label %20

20:                                               ; preds = %14, %11
  %21 = load i64, ptr %5, align 8, !tbaa !22
  %22 = and i64 %21, 8
  %23 = icmp ne i64 %22, 0
  br i1 %23, label %24, label %30

24:                                               ; preds = %20
  %25 = load ptr, ptr %4, align 8, !tbaa !24
  %26 = getelementptr inbounds nuw %struct.WOLFSSL_CTX, ptr %25, i32 0, i32 21
  %27 = load i16, ptr %26, align 1
  %28 = and i16 %27, -33
  %29 = or i16 %28, 32
  store i16 %29, ptr %26, align 1
  br label %30

30:                                               ; preds = %24, %20
  store i64 1, ptr %3, align 8
  br label %31

31:                                               ; preds = %30, %10
  %32 = load i64, ptr %3, align 8
  ret i64 %32
}