; Function Attrs: mustprogress nofree norecurse nosync nounwind willreturn memory(argmem: readwrite) uwtable
define range(i64 0, 2) i64 @wolfSSL_CTX_set_session_cache_mode(ptr noundef captures(address_is_null) %0, i64 noundef %1) local_unnamed_addr #4 {
  %3 = icmp eq ptr %0, null
  br i1 %3, label %11, label %4

4:                                                ; preds = %2
  %5 = icmp eq i64 %1, 0
  br i1 %5, label %.sink.split, label %6

6:                                                ; preds = %4
  %7 = and i64 %1, 8
  %.not = icmp eq i64 %7, 0
  br i1 %.not, label %11, label %.sink.split

.sink.split:                                      ; preds = %6, %4
  %.sink9 = phi i16 [ 16, %4 ], [ 32, %6 ]
  %8 = getelementptr inbounds nuw i8, ptr %0, i64 169
  %9 = load i16, ptr %8, align 1
  %10 = or i16 %9, %.sink9
  store i16 %10, ptr %8, align 1
  br label %11

11:                                               ; preds = %.sink.split, %6, %2
  %.0 = phi i64 [ 0, %2 ], [ 1, %6 ], [ 1, %.sink.split ]
  ret i64 %.0
}